target datalayout = "e-m:e-p270:32:32-p271:32:32-p272:64:64-i64:64-i128:128-f80:128-n8:16:32:64-S128"
target triple = "x86_64-pc-linux-gnu"

%"class.g2o::EstimatePropagator::AdjacencyMapEntry" = type { ptr, %"class.std::set", ptr, double, i32, i8, %"struct.std::_Rb_tree_iterator" }
%"class.std::set" = type { %"class.std::_Rb_tree" }
%"class.std::_Rb_tree" = type { %"struct.std::_Rb_tree<g2o::HyperGraph::Vertex *, g2o::HyperGraph::Vertex *, std::_Identity<g2o::HyperGraph::Vertex *>, std::less<g2o::HyperGraph::Vertex *>>::_Rb_tree_impl" }
%"struct.std::_Rb_tree<g2o::HyperGraph::Vertex *, g2o::HyperGraph::Vertex *, std::_Identity<g2o::HyperGraph::Vertex *>, std::less<g2o::HyperGraph::Vertex *>>::_Rb_tree_impl" = type { [8 x i8], %"struct.std::_Rb_tree_header" }
%"struct.std::_Rb_tree_header" = type { %"struct.std::_Rb_tree_node_base", i64 }
%"struct.std::_Rb_tree_node_base" = type { i32, ptr, ptr, ptr }
%"struct.std::_Rb_tree_iterator" = type { ptr }

; Function Attrs: mustprogress nounwind uwtable
define linkonce_odr noundef ptr @_ZNKSt8_Rb_treeIPN3g2o10HyperGraph6VertexES3_St9_IdentityIS3_ESt4lessIS3_ESaIS3_EE9_M_mbeginEv(ptr noundef nonnull align 8 dereferenceable(48) %0) #4 comdat align 2 {
  %2 = alloca ptr, align 8
  store ptr %0, ptr %2, align 8, !tbaa !164
  %3 = load ptr, ptr %2, align 8
  %4 = getelementptr inbounds nuw %"class.std::_Rb_tree", ptr %3, i32 0, i32 0
  %5 = getelementptr inbounds i8, ptr %4, i64 8
  %6 = getelementptr inbounds nuw %"struct.std::_Rb_tree_header", ptr %5, i32 0, i32 0
  %7 = getelementptr inbounds nuw %"struct.std::_Rb_tree_node_base", ptr %6, i32 0, i32 1
  %8 = load ptr, ptr %7, align 8, !tbaa !177
  ret ptr %8
}

; Function Attrs: mustprogress nounwind uwtable
define linkonce_odr void @_ZNSt15_Rb_tree_header8_M_resetEv(ptr noundef nonnull align 8 dereferenceable(40) %0) #4 comdat align 2 {
  %2 = alloca ptr, align 8
  store ptr %0, ptr %2, align 8, !tbaa !172
  %3 = load ptr, ptr %2, align 8
  %4 = getelementptr inbounds nuw %"struct.std::_Rb_tree_header", ptr %3, i32 0, i32 0
  %5 = getelementptr inbounds nuw %"struct.std::_Rb_tree_node_base", ptr %4, i32 0, i32 1
  store ptr null, ptr %5, align 8, !tbaa !177
  %6 = getelementptr inbounds nuw %"struct.std::_Rb_tree_header", ptr %3, i32 0, i32 0
  %7 = getelementptr inbounds nuw %"struct.std::_Rb_tree_header", ptr %3, i32 0, i32 0
  %8 = getelementptr inbounds nuw %"struct.std::_Rb_tree_node_base", ptr %7, i32 0, i32 2
  store ptr %6, ptr %8, align 8, !tbaa !178
  %9 = getelementptr inbounds nuw %"struct.std::_Rb_tree_header", ptr %3, i32 0, i32 0
  %10 = getelementptr inbounds nuw %"struct.std::_Rb_tree_header", ptr %3, i32 0, i32 0
  %11 = getelementptr inbounds nuw %"struct.std::_Rb_tree_node_base", ptr %10, i32 0, i32 3
  store ptr %9, ptr %11, align 8, !tbaa !179
  %12 = getelementptr inbounds nuw %"struct.std::_Rb_tree_header", ptr %3, i32 0, i32 1
  store i64 0, ptr %12, align 8, !tbaa !180
  ret void
}

; Function Attrs: mustprogress nounwind uwtable
define linkonce_odr noundef ptr @_ZNSt8_Rb_treeIPN3g2o10HyperGraph6VertexES3_St9_IdentityIS3_ESt4lessIS3_ESaIS3_EE8_M_beginEv(ptr noundef nonnull align 8 dereferenceable(48) %0) #4 comdat align 2 {
  %2 = alloca ptr, align 8
  store ptr %0, ptr %2, align 8, !tbaa !164
  %3 = load ptr, ptr %2, align 8
  %4 = call noundef ptr @_ZNKSt8_Rb_treeIPN3g2o10HyperGraph6VertexES3_St9_IdentityIS3_ESt4lessIS3_ESaIS3_EE9_M_mbeginEv(ptr noundef nonnull align 8 dereferenceable(48) %3) #3
  ret ptr %4
}

; Function Attrs: mustprogress nounwind uwtable
define linkonce_odr void @_ZNSt8_Rb_treeIPN3g2o10HyperGraph6VertexES3_St9_IdentityIS3_ESt4lessIS3_ESaIS3_EE5clearEv(ptr noundef nonnull align 8 dereferenceable(48) %0) #4 comdat align 2 personality ptr @__gxx_personality_v0 {
  %2 = alloca ptr, align 8
  store ptr %0, ptr %2, align 8, !tbaa !164
  %3 = load ptr, ptr %2, align 8
  %4 = call noundef ptr @_ZNSt8_Rb_treeIPN3g2o10HyperGraph6VertexES3_St9_IdentityIS3_ESt4lessIS3_ESaIS3_EE8_M_beginEv(ptr noundef nonnull align 8 dereferenceable(48) %3) #3
  invoke void @_ZNSt8_Rb_treeIPN3g2o10HyperGraph6VertexES3_St9_IdentityIS3_ESt4lessIS3_ESaIS3_EE8_M_eraseEPSt13_Rb_tree_nodeIS3_E(ptr noundef nonnull align 8 dereferenceable(48) %3, ptr noundef %4)
          to label %5 unwind label %8

5:                                                ; preds = %1
  %6 = getelementptr inbounds nuw %"class.std::_Rb_tree", ptr %3, i32 0, i32 0
  %7 = getelementptr inbounds i8, ptr %6, i64 8
  call void @_ZNSt15_Rb_tree_header8_M_resetEv(ptr noundef nonnull align 8 dereferenceable(40) %7)
  ret void

8:                                                ; preds = %1
  %9 = landingpad { ptr, i32 }
          catch ptr null
  %10 = extractvalue { ptr, i32 } %9, 0
  call void @__clang_call_terminate(ptr %10) #19
  unreachable
}

; Function Attrs: mustprogress nounwind uwtable
define linkonce_odr noundef double @_ZNSt14numeric_limitsIdE3maxEv() #4 comdat align 2 {
  ret double 0x7FEFFFFFFFFFFFFF
}

; Function Attrs: mustprogress nounwind uwtable
define linkonce_odr void @_ZNSt3setIPN3g2o10HyperGraph6VertexESt4lessIS3_ESaIS3_EE5clearEv(ptr noundef nonnull align 8 dereferenceable(48) %0) #4 comdat align 2 {
  %2 = alloca ptr, align 8
  store ptr %0, ptr %2, align 8, !tbaa !16
  %3 = load ptr, ptr %2, align 8
  %4 = getelementptr inbounds nuw %"class.std::set", ptr %3, i32 0, i32 0
  call void @_ZNSt8_Rb_treeIPN3g2o10HyperGraph6VertexES3_St9_IdentityIS3_ESt4lessIS3_ESaIS3_EE5clearEv(ptr noundef nonnull align 8 dereferenceable(48) %4) #3
  ret void
}

; Function Attrs: mustprogress nounwind uwtable
define void @_ZN3g2o18EstimatePropagator17AdjacencyMapEntry5resetEv(ptr noundef nonnull align 8 dereferenceable(88) %0) #4 align 2 {
  %2 = alloca ptr, align 8
  store ptr %0, ptr %2, align 8, !tbaa !14
  %3 = load ptr, ptr %2, align 8
  %4 = getelementptr inbounds nuw %"class.g2o::EstimatePropagator::AdjacencyMapEntry", ptr %3, i32 0, i32 0
  store ptr null, ptr %4, align 8, !tbaa !23
  %5 = getelementptr inbounds nuw %"class.g2o::EstimatePropagator::AdjacencyMapEntry", ptr %3, i32 0, i32 1
  call void @_ZNSt3setIPN3g2o10HyperGraph6VertexESt4lessIS3_ESaIS3_EE5clearEv(ptr noundef nonnull align 8 dereferenceable(48) %5) #3
  %6 = getelementptr inbounds nuw %"class.g2o::EstimatePropagator::AdjacencyMapEntry", ptr %3, i32 0, i32 2
  store ptr null, ptr %6, align 8, !tbaa !39
  %7 = call noundef double @_ZNSt14numeric_limitsIdE3maxEv() #3
  %8 = getelementptr inbounds nuw %"class.g2o::EstimatePropagator::AdjacencyMapEntry", ptr %3, i32 0, i32 3
  store double %7, ptr %8, align 8, !tbaa !40
  %9 = getelementptr inbounds nuw %"class.g2o::EstimatePropagator::AdjacencyMapEntry", ptr %3, i32 0, i32 4
  store i32 -1, ptr %9, align 8, !tbaa !41
  %10 = getelementptr inbounds nuw %"class.g2o::EstimatePropagator::AdjacencyMapEntry", ptr %3, i32 0, i32 5
  store i8 0, ptr %10, align 4, !tbaa !42
  ret void
}